; Function Attrs: mustprogress uwtable
define noundef nonnull align 8 dereferenceable(522) ptr @_ZN32pxrInternal_v0_24__pxrReserved__16UsdGeomBBoxCacheaSERKS0_(ptr noundef nonnull returned align 8 dereferenceable(522) %0, ptr noundef nonnull align 8 dereferenceable(522) %1) local_unnamed_addr #0 align 2 {
  %3 = icmp eq ptr %0, %1
  br i1 %3, label %23, label %_ZN32pxrInternal_v0_24__pxrReserved__17UsdGeomXformCacheaSERKS0_.exit

_ZN32pxrInternal_v0_24__pxrReserved__17UsdGeomXformCacheaSERKS0_.exit: ; preds = %2
  %4 = getelementptr inbounds nuw i8, ptr %1, i64 352
  %5 = getelementptr inbounds nuw i8, ptr %0, i64 352
  %6 = load i64, ptr %4, align 8
  store i64 %6, ptr %5, align 8
  %7 = getelementptr inbounds nuw i8, ptr %1, i64 360
  %8 = getelementptr inbounds nuw i8, ptr %0, i64 360
  tail call void @llvm.memcpy.p0.p0.i64(ptr noundef nonnull align 8 dereferenceable(16) %8, ptr noundef nonnull align 8 dereferenceable(16) %7, i64 16, i1 false)
  %9 = getelementptr inbounds nuw i8, ptr %1, i64 376
  %10 = getelementptr inbounds nuw i8, ptr %0, i64 376
  %11 = tail call noundef nonnull align 8 dereferenceable(24) ptr @_ZNSt6vectorIN32pxrInternal_v0_24__pxrReserved__7TfTokenESaIS1_EEaSERKS3_(ptr noundef nonnull align 8 dereferenceable(24) %10, ptr noundef nonnull align 8 dereferenceable(24) %9)
  %12 = getelementptr inbounds nuw i8, ptr %1, i64 400
  %13 = getelementptr inbounds nuw i8, ptr %0, i64 400
  tail call void @_ZNSt10_HashtableIN32pxrInternal_v0_24__pxrReserved__7UsdPrimESt4pairIKS1_NS0_17UsdGeomXformCache6_EntryEESaIS6_ENSt8__detail10_Select1stESt8equal_toIS1_ENS0_6TfHashENS8_18_Mod_range_hashingENS8_20_Default_ranged_hashENS8_20_Prime_rehash_policyENS8_17_Hashtable_traitsILb1ELb0ELb1EEEE18_M_assign_elementsIRKSI_EEvOT_(ptr noundef nonnull align 8 dereferenceable(64) %13, ptr noundef nonnull align 8 dereferenceable(64) %12)
  %14 = getelementptr inbounds nuw i8, ptr %0, i64 456
  %15 = getelementptr inbounds nuw i8, ptr %1, i64 456
  %16 = load i64, ptr %15, align 8
  store i64 %16, ptr %14, align 8
  %17 = getelementptr inbounds nuw i8, ptr %0, i64 464
  %18 = getelementptr inbounds nuw i8, ptr %1, i64 464
  tail call void @_ZNSt10_HashtableIN32pxrInternal_v0_24__pxrReserved__16UsdGeomBBoxCache12_PrimContextESt4pairIKS2_NS1_6_EntryEESaIS6_ENSt8__detail10_Select1stESt8equal_toIS2_ENS0_6TfHashENS8_18_Mod_range_hashingENS8_20_Default_ranged_hashENS8_20_Prime_rehash_policyENS8_17_Hashtable_traitsILb1ELb0ELb1EEEE18_M_assign_elementsIRKSI_EEvOT_(ptr noundef nonnull align 8 dereferenceable(56) %17, ptr noundef nonnull align 8 dereferenceable(56) %18)
  %19 = getelementptr inbounds nuw i8, ptr %1, i64 520
  %20 = load i8, ptr %19, align 8
  %21 = getelementptr inbounds nuw i8, ptr %0, i64 520
  %22 = and i8 %20, 1
  store i8 %22, ptr %21, align 8
  br label %23

23:                                               ; preds = %2, %_ZN32pxrInternal_v0_24__pxrReserved__17UsdGeomXformCacheaSERKS0_.exit
  ret ptr %0
}